; Function Attrs: null_pointer_is_valid sspstrong uwtable
define internal fastcc noundef i32 @mapi_dissect_element_RopReply_SyncOpenCollector(ptr noundef %0, i32 noundef returned %1, ptr noundef %2, ptr noundef captures(none) %3) unnamed_addr #0 {
  %5 = load i32, ptr @hf_mapi_RopReply_SyncOpenCollector, align 4
  %6 = getelementptr inbounds nuw i8, ptr %3, i64 26
  %7 = load i8, ptr %6, align 2, !range !9, !noundef !10
  store i8 1, ptr %6, align 2
  %.not.i = icmp eq ptr %2, null
  br i1 %.not.i, label %mapi_dissect_struct_SyncOpenCollector_repl.exit, label %8

8:                                                ; preds = %4
  %9 = tail call ptr @proto_tree_add_item(ptr noundef nonnull %2, i32 noundef %5, ptr noundef %0, i32 noundef %1, i32 noundef -1, i32 noundef 0)
  br label %mapi_dissect_struct_SyncOpenCollector_repl.exit

mapi_dissect_struct_SyncOpenCollector_repl.exit:  ; preds = %4, %8
  %.0.i = phi ptr [ %9, %8 ], [ null, %4 ]
  tail call void @proto_item_set_len(ptr noundef %.0.i, i32 noundef 0)
  store i8 %7, ptr %6, align 2
  ret i32 %1
}